Certificate:
    Data:
        Version: 3 (0x2)
        Serial Number: 4098 (0x1002)
    Signature Algorithm: sha512WithRSAEncryption
        Issuer: C=DE, O=opmsg team, CN=drops CA
        Validity
            Not Before: Jan 27 13:55:15 2017 GMT
            Not After : Jan 25 13:55:15 2027 GMT
        Subject: C=DE, O=opmsg team, CN=local drop
        Subject Public Key Info:
            Public Key Algorithm: rsaEncryption
                Public-Key: (4096 bit)
                Modulus:
                    00:b3:ab:29:c0:be:d9:e1:9b:dd:e2:9e:ea:ce:be:
                    ad:a1:fc:50:71:39:ee:bf:25:54:b9:9a:ca:24:d8:
                    56:aa:e3:a6:2f:80:d2:88:5a:a0:86:9b:dd:67:42:
                    49:aa:2a:dd:c3:32:0a:3b:3c:2c:87:47:2e:47:f2:
                    7a:1d:a9:e1:de:19:1f:5b:43:98:39:95:93:4d:7f:
                    26:cd:1d:ec:56:22:8f:59:f2:87:19:49:b4:89:6e:
                    2b:e1:73:f8:04:92:7c:5b:08:2c:83:e7:60:3f:8b:
                    c6:62:74:2f:80:c9:38:99:c2:be:73:ca:9f:dd:2e:
                    13:67:45:62:97:dd:15:0e:28:e4:09:16:22:3f:30:
                    87:fa:8c:c5:dc:47:5b:c9:98:13:a0:9f:76:2c:80:
                    bd:01:b2:f2:fc:07:d6:80:9c:ff:12:cb:27:33:74:
                    c4:5f:05:e5:63:8d:ae:a1:40:71:1b:01:85:71:cb:
                    da:1d:fb:a3:d7:90:e7:17:25:1e:03:e5:a7:b9:20:
                    28:9d:e4:68:9c:78:d9:14:f2:86:d3:10:4f:3a:2e:
                    6d:0e:ca:09:6c:91:f7:7d:79:4a:cc:7c:24:b4:06:
                    b2:1d:3b:59:ee:91:b1:56:31:3c:b5:ee:ca:bc:6b:
                    8e:26:97:30:38:ef:1b:38:51:1e:1c:77:9a:26:d0:
                    53:03:ab:c2:8b:13:9d:ff:c3:e5:9b:7f:04:51:f8:
                    9b:61:b6:b7:f3:0b:ac:e7:64:c3:7e:dd:f7:ce:79:
                    b1:e1:b2:aa:ac:84:fb:3b:06:a1:2a:85:14:c6:85:
                    29:c2:87:10:5d:56:77:cb:8c:85:2d:2e:bf:3f:11:
                    36:a7:56:43:df:5c:2c:75:c1:98:64:d8:1f:10:63:
                    10:49:11:01:14:08:09:47:3f:95:e2:01:e8:1a:9a:
                    90:0a:9b:13:28:8e:68:87:c6:6e:a5:e7:cc:77:a6:
                    43:57:28:0b:c6:34:3a:5b:c4:1a:8d:34:86:95:be:
                    64:3e:6a:6f:ae:ed:30:18:c7:ac:ab:4b:48:82:fa:
                    ff:26:df:4e:6e:88:f5:c6:d1:66:2c:2b:33:f8:9e:
                    9c:e2:8f:df:2d:65:8e:d3:5f:e4:f6:d0:61:5a:fd:
                    50:72:7b:f7:97:ac:e9:6e:37:dc:8d:54:31:97:96:
                    71:b8:c0:39:81:07:09:1e:e6:77:0f:64:8a:84:15:
                    8f:aa:9e:1c:c8:7e:78:89:6d:38:74:74:da:f0:df:
                    8f:01:e2:2b:cf:66:db:36:f6:24:83:70:6f:68:61:
                    c5:62:ab:a5:8a:83:26:8b:ed:4b:8b:92:bb:dd:0d:
                    33:7a:25:0c:c0:c7:73:7e:12:cf:e6:34:7d:38:05:
                    58:3d:ff
                Exponent: 65537 (0x10001)
        X509v3 extensions:
            X509v3 Basic Constraints: critical
                CA:FALSE
            X509v3 Extended Key Usage: 
                TLS Web Client Authentication, TLS Web Server Authentication
            X509v3 Subject Key Identifier: 
                4C:83:23:0F:34:E9:0B:D2:45:CF:25:DC:A1:49:AF:A7:1F:B3:ED:8B
    Signature Algorithm: sha512WithRSAEncryption
         35:a1:d6:cd:b8:f7:d1:7f:b1:45:98:04:42:46:0f:97:84:6a:
         38:36:18:25:58:95:ed:c2:cc:ed:0b:4d:60:16:61:1e:42:8e:
         da:8c:65:51:f2:f6:c2:f9:64:61:82:4f:d5:de:0c:7f:a1:fb:
         df:0d:f3:ab:1d:98:1e:3f:22:d4:00:c4:ee:1e:de:2a:14:34:
         11:fd:a7:a2:e5:6d:ea:fb:72:2a:2c:25:d1:48:e2:98:c4:94:
         25:2a:53:ff:01:36:24:bf:67:c9:ea:7f:d4:c4:f9:bf:95:f8:
         e8:4c:2f:bc:92:e0:ee:fb:f7:cf:ac:8a:b4:5c:df:00:ec:d8:
         42:db:ab:83:29:d4:35:44:c1:5f:ce:7c:12:b1:da:c2:fa:94:
         86:63:56:e6:c1:76:9e:59:cc:e5:b9:53:fd:27:3e:cc:15:50:
         41:d5:86:dd:e0:b6:3b:e7:e0:e0:5c:47:36:a0:fe:c1:a5:fd:
         9f:e6:14:6c:0d:2c:2b:48:dc:46:a3:0e:0d:ff:d4:20:ab:ae:
         d7:cc:0d:1b:f4:16:6c:2d:3e:fa:3b:bf:b1:22:2b:2b:82:55:
         f9:c4:08:1a:61:cd:8b:dc:f4:4b:6b:b9:39:de:d8:9a:65:02:
         dd:f9:42:73:ea:4b:98:ac:79:e3:ac:f4:02:2e:17:e5:28:ef:
         63:c2:51:1d:35:d5:f1:99:d2:2d:4e:8e:a6:d7:07:15:d3:33:
         c3:3c:f2:59:42:de:1e:dc:a3:3e:9d:53:97:32:45:29:c4:35:
         d1:b4:bf:1f:12:68:5a:0b:22:a8:b6:88:7b:da:99:5b:a9:91:
         16:67:a8:07:23:90:b5:b7:61:15:8c:79:a9:ee:44:83:a1:b6:
         f1:aa:c4:ca:ca:9d:22:c6:9e:02:02:28:51:0f:c3:7a:47:c0:
         64:51:54:56:97:b1:8e:59:61:c2:ba:48:56:90:0c:8c:eb:68:
         21:f0:ff:1e:03:ef:2a:24:e1:4c:9c:6f:1e:17:f8:91:46:3f:
         0b:6a:b4:5e:81:a6:47:4a:c8:c6:4d:8a:f2:8d:57:04:06:99:
         ad:a2:ea:bb:91:38:db:30:4a:2a:d8:46:7f:4e:b3:2d:7b:7b:
         ce:ef:48:31:fe:b1:dd:12:9c:e9:7c:24:a8:f5:63:00:d7:ce:
         98:9f:35:a3:4c:9f:3c:b3:6c:32:b5:bb:bd:9f:4c:03:30:a7:
         f6:8e:d4:65:06:dd:f4:35:0c:30:36:33:ee:e6:f8:a4:0e:8f:
         3d:65:f5:3f:90:18:88:42:89:8c:f9:ef:81:ba:7d:7f:12:07:
         5f:b7:e8:66:22:9e:d5:36:38:c0:f2:e5:cb:46:48:88:79:d1:
         41:4f:73:36:e3:8d:92:52:30:6c:c8:76:a9:46:0c:92:41:a2:
         3f:e3:e4:3c:7b:b3:10:c0:62:65:40:cf:36:2c:0e:df:cb:d3:
         af:57:03:8b:8d:3a:c1:9b:47:8e:6e:2f:07:e0:88:63:ad:0d:
         83:4a:fe:bb:be:da:63:02:bc:e9:d5:29:9b:3e:5f:21:37:55:
         3c:38:59:05:46:e6:a5:1f:1f:fb:df:bd:bd:3a:8d:70:2b:58:
         d8:6c:c6:f4:40:6e:1f:e2:51:ae:39:9e:f8:fd:15:9f:8f:4e:
         63:f5:12:8e:46:5f:06:a2:8b:52:6a:a6:19:de:42:fa:42:cb:
         bd:95:78:90:18:57:32:5c:dd:51:44:41:6f:70:53:ee:86:2b:
         38:06:7f:fc:13:0e:33:09:91:dd:e0:8f:f0:b6:e8:95:14:d2:
         75:37:56:3b:4a:57:81:aa:71:14:f8:ac:ed:c5:da:2d:9c:37:
         32:e7:f1:55:9b:76:13:42:be:cf:5d:8f:13:4e:e9:59:b0:4f:
         1d:24:e9:17:cb:b9:ad:82:3d:d4:dd:5f:7e:6d:68:1a:21:29:
         3d:56:53:27:40:47:07:a5:fd:95:8c:8a:d4:14:1e:26:dd:4a:
         30:57:e1:9b:a9:f4:15:87:0e:40:30:0b:df:01:26:c0:8a:83:
         24:8e:e3:f2:ba:ad:c6:ca:9e:ad:4c:29:65:eb:d0:59:21:a5:
         61:5d:89:17:21:48:84:3b:78:c1:6e:8d:0d:b4:aa:73:6c:38:
         d8:cd:4b:61:50:61:e2:6d:a7:99:5a:9a:38:66:c9:05:a0:04:
         b7:8a:2f:e2:21:28:39:5e:d4:2a:6a:12:a8:4d:05:ee:f1:98:
         84:03:68:e2:51:32:f0:6e:f6:b5:f3:62:b2:c2:f9:87:6d:12:
         f7:cc:96:91:30:62:af:a6:a3:b8:7e:72:10:bd:dd:2f:5e:bb:
         13:f7:1f:c0:f2:50:31:0b:88:ac:b3:9c:d6:ad:74:80:e0:0f:
         13:e9:3d:72:e0:e6:51:40:cf:8a:e6:2c:67:a0:8e:73:38:16:
         4c:41:6a:87:37:bb:11:a9:fc:21:04:fe:c9:db:7d:c9:6e:63:
         2b:3d:26:3e:2f:aa:26:4e:0f:9c:48:2e:fb:b4:e7:78:e1:86:
         29:fe:e3:f1:21:ac:68:05:a1:2a:4d:87:8b:42:f4:f5:28:80:
         cc:9c:52:90:79:1d:99:ce:1a:3a:4a:b9:2a:ff:64:50:b7:bd:
         79:8d:a9:c9:c6:b5:c0:89:f1:23:3d:09:df:10:8b:23:c4:d5:
         ce:3e:2e:a2:ae:10:d0:78:fc:1f:e7:92:fd:6c:9d:56:97:b9:
         93:de:c9:83:96:46:44:ba:9e:97:2d:94:41:8e:2f:eb
-----BEGIN CERTIFICATE-----
MIIHNjCCAx6gAwIBAgICEAIwDQYJKoZIhvcNAQENBQAwNTELMAkGA1UEBhMCREUx
EzARBgNVBAoMCm9wbXNnIHRlYW0xETAPBgNVBAMMCGRyb3BzIENBMB4XDTE3MDEy
NzEzNTUxNVoXDTI3MDEyNTEzNTUxNVowNzELMAkGA1UEBhMCREUxEzARBgNVBAoM
Cm9wbXNnIHRlYW0xEzARBgNVBAMMCmxvY2FsIGRyb3AwggIiMA0GCSqGSIb3DQEB
AQUAA4ICDwAwggIKAoICAQCzqynAvtnhm93inurOvq2h/FBxOe6/JVS5msok2Faq
46YvgNKIWqCGm91nQkmqKt3DMgo7PCyHRy5H8nodqeHeGR9bQ5g5lZNNfybNHexW
Io9Z8ocZSbSJbivhc/gEknxbCCyD52A/i8ZidC+AyTiZwr5zyp/dLhNnRWKX3RUO
KOQJFiI/MIf6jMXcR1vJmBOgn3YsgL0BsvL8B9aAnP8SyyczdMRfBeVjja6hQHEb
AYVxy9od+6PXkOcXJR4D5ae5ICid5GiceNkU8obTEE86Lm0Oyglskfd9eUrMfCS0
BrIdO1nukbFWMTy17sq8a44mlzA47xs4UR4cd5om0FMDq8KLE53/w+WbfwRR+Jth
trfzC6znZMN+3ffOebHhsqqshPs7BqEqhRTGhSnChxBdVnfLjIUtLr8/ETanVkPf
XCx1wZhk2B8QYxBJEQEUCAlHP5XiAegampAKmxMojmiHxm6l58x3pkNXKAvGNDpb
xBqNNIaVvmQ+am+u7TAYx6yrS0iC+v8m305uiPXG0WYsKzP4npzij98tZY7TX+T2
0GFa/VBye/eXrOluN9yNVDGXlnG4wDmBBwke5ncPZIqEFY+qnhzIfniJbTh0dNrw
348B4ivPZts29iSDcG9oYcViq6WKgyaL7UuLkrvdDTN6JQzAx3N+Es/mNH04BVg9
/wIDAQABo04wTDAMBgNVHRMBAf8EAjAAMB0GA1UdJQQWMBQGCCsGAQUFBwMCBggr
BgEFBQcDATAdBgNVHQ4EFgQUTIMjDzTpC9JFzyXcoUmvpx+z7YswDQYJKoZIhvcN
AQENBQADggQBADWh1s2499F/sUWYBEJGD5eEajg2GCVYle3CzO0LTWAWYR5CjtqM
ZVHy9sL5ZGGCT9XeDH+h+98N86sdmB4/ItQAxO4e3ioUNBH9p6Llber7ciosJdFI
4pjElCUqU/8BNiS/Z8nqf9TE+b+V+OhML7yS4O7798+sirRc3wDs2ELbq4Mp1DVE
wV/OfBKx2sL6lIZjVubBdp5ZzOW5U/0nPswVUEHVht3gtjvn4OBcRzag/sGl/Z/m
FGwNLCtI3EajDg3/1CCrrtfMDRv0FmwtPvo7v7EiKyuCVfnECBphzYvc9EtruTne
2JplAt35QnPqS5iseeOs9AIuF+Uo72PCUR011fGZ0i1OjqbXBxXTM8M88llC3h7c
oz6dU5cyRSnENdG0vx8SaFoLIqi2iHvamVupkRZnqAcjkLW3YRWMeanuRIOhtvGq
xMrKnSLGngICKFEPw3pHwGRRVFaXsY5ZYcK6SFaQDIzraCHw/x4D7yok4Uycbx4X
+JFGPwtqtF6BpkdKyMZNivKNVwQGma2i6ruRONswSirYRn9Osy17e87vSDH+sd0S
nOl8JKj1YwDXzpifNaNMnzyzbDK1u72fTAMwp/aO1GUG3fQ1DDA2M+7m+KQOjz1l
9T+QGIhCiYz574G6fX8SB1+36GYintU2OMDy5ctGSIh50UFPczbjjZJSMGzIdqlG
DJJBoj/j5Dx7sxDAYmVAzzYsDt/L069XA4uNOsGbR45uLwfgiGOtDYNK/ru+2mMC
vOnVKZs+XyE3VTw4WQVG5qUfH/vfvb06jXArWNhsxvRAbh/iUa45nvj9FZ+PTmP1
Eo5GXwaii1JqphneQvpCy72VeJAYVzJc3VFEQW9wU+6GKzgGf/wTDjMJkd3gj/C2
6JUU0nU3VjtKV4GqcRT4rO3F2i2cNzLn8VWbdhNCvs9djxNO6VmwTx0k6RfLua2C
PdTdX35taBohKT1WUydARwel/ZWMitQUHibdSjBX4Zup9BWHDkAwC98BJsCKgySO
4/K6rcbKnq1MKWXr0FkhpWFdiRchSIQ7eMFujQ20qnNsONjNS2FQYeJtp5lamjhm
yQWgBLeKL+IhKDle1CpqEqhNBe7xmIQDaOJRMvBu9rXzYrLC+YdtEvfMlpEwYq+m
o7h+chC93S9euxP3H8DyUDELiKyznNatdIDgDxPpPXLg5lFAz4rmLGegjnM4FkxB
aoc3uxGp/CEE/snbfcluYys9Jj4vqiZOD5xILvu053jhhin+4/EhrGgFoSpNh4tC
9PUogMycUpB5HZnOGjpKuSr/ZFC3vXmNqcnGtcCJ8SM9Cd8QiyPE1c4+LqKuENB4
/B/nkv1snVaXuZPeyYOWRkS6npctlEGOL+s=
-----END CERTIFICATE-----
