Certificate:
    Data:
        Version: 3 (0x2)
        Serial Number: 4099 (0x1003)
    Signature Algorithm: sha512WithRSAEncryption
        Issuer: C=DE, O=opmsg team, CN=drops CA
        Validity
            Not Before: Jan 27 13:55:54 2017 GMT
            Not After : Jan 25 13:55:54 2027 GMT
        Subject: C=DE, O=opmsg team, CN=global drop
        Subject Public Key Info:
            Public Key Algorithm: rsaEncryption
                Public-Key: (4096 bit)
                Modulus:
                    00:ae:f4:dd:57:06:28:fd:e9:34:7f:32:4d:65:bb:
                    4b:d5:35:07:40:ca:d6:f6:c4:d8:e2:58:20:24:24:
                    2c:9e:60:2f:b3:ba:db:3e:69:bd:20:c1:a1:b4:07:
                    18:ff:fe:7d:cb:90:db:97:e1:bf:b6:8a:64:f4:e9:
                    19:59:da:7b:c2:16:25:b7:65:f9:a2:a5:05:ae:ad:
                    7d:98:e6:ae:86:1b:23:60:e8:a8:75:c8:dc:ab:96:
                    f0:67:13:64:3f:b5:ec:1f:67:00:64:59:44:2c:55:
                    8a:3e:71:d6:10:bc:f9:bb:f8:8d:7d:97:a5:07:72:
                    55:d8:b8:db:91:65:cf:e0:51:10:9f:2f:bd:1b:5d:
                    6a:a3:7f:28:9b:99:aa:f4:3c:f9:e2:bb:4f:f1:a8:
                    6c:7f:cf:b8:24:7b:0c:07:ca:d2:df:c7:99:83:ef:
                    cd:52:ff:79:ef:50:5f:5c:6f:47:98:1d:7b:2d:20:
                    1a:a1:7e:e3:6a:db:c6:01:17:86:9c:e1:6c:a7:aa:
                    92:6c:05:8b:92:6d:73:cb:0b:67:f5:32:10:56:8e:
                    13:86:18:0b:11:15:1b:c8:14:21:62:5d:f9:9d:9b:
                    9c:3d:3b:ee:94:83:3c:48:84:1b:47:29:7d:74:70:
                    0b:35:99:f7:69:5d:a0:d4:c9:bd:00:99:94:4b:a4:
                    f3:83:7f:fb:5c:a8:68:f8:72:e8:73:aa:16:f9:e5:
                    7a:69:5d:73:15:79:4c:5b:6d:87:37:74:10:28:2d:
                    29:29:49:b1:aa:f2:84:bb:d7:3f:6c:1f:24:e3:6c:
                    d9:98:5d:73:92:1f:ce:5f:90:a9:8e:c3:c0:cb:0a:
                    5d:a9:cb:f9:8c:0f:1b:ad:7c:f6:69:af:6c:5b:fc:
                    ba:8c:f0:c1:f1:86:d0:6b:d5:15:c6:b1:e8:88:85:
                    04:7f:16:3a:eb:e4:19:d0:4c:d5:20:66:88:ff:91:
                    9c:aa:9d:29:8b:d3:06:f2:2e:03:ef:ae:72:9e:aa:
                    48:24:58:8b:b3:8c:a2:fe:b2:ac:84:60:85:29:63:
                    63:33:bd:02:aa:ab:be:80:f7:69:1d:aa:ab:29:96:
                    a3:f3:84:c8:54:55:f3:c3:8c:9e:19:e0:dc:0d:9f:
                    37:1c:0b:1d:26:72:8b:1f:f4:72:07:54:e0:07:a7:
                    80:fc:03:09:84:b6:99:56:ba:aa:36:e1:5e:67:5c:
                    9f:59:34:b0:09:8a:b5:35:74:05:5b:c1:03:11:bf:
                    84:51:26:f1:d8:a0:fc:7c:2d:0f:51:3c:11:f5:30:
                    68:25:a4:40:9d:41:12:d6:40:81:f7:65:b2:c0:ec:
                    5c:b4:8b:e4:d1:39:5a:f3:cc:39:98:7c:6b:80:5e:
                    57:4e:b1
                Exponent: 65537 (0x10001)
        X509v3 extensions:
            X509v3 Basic Constraints: critical
                CA:FALSE
            X509v3 Extended Key Usage: 
                TLS Web Client Authentication, TLS Web Server Authentication
            X509v3 Subject Key Identifier: 
                A9:F8:6A:B8:87:CB:0B:DF:2A:A0:06:A9:99:C4:A9:E2:D6:6E:3F:E4
    Signature Algorithm: sha512WithRSAEncryption
         1b:ec:2e:f9:80:68:74:71:76:54:33:fd:22:87:85:d7:ab:29:
         f3:99:c2:c3:1d:e4:59:7e:3d:99:59:df:4c:d0:48:f4:9b:76:
         92:9e:15:b7:b8:7f:4c:89:56:80:17:37:d4:76:54:9d:a8:ec:
         7d:7e:ac:5c:33:1d:51:df:10:96:8c:4d:b4:5d:e4:9b:c4:32:
         a5:83:4d:a9:f8:b8:9f:d8:7f:29:9c:2d:35:a3:8c:13:9c:8c:
         8a:b8:2f:c8:75:1b:a0:a1:83:f0:2b:16:8e:e7:bc:63:f6:6e:
         8d:cc:c0:e8:cc:f0:aa:99:81:de:7a:f7:c6:30:8b:5d:aa:87:
         a4:0c:78:e2:95:77:0f:05:7c:37:f8:0b:0e:e4:b9:d2:6d:20:
         66:77:09:bb:94:73:2f:9b:10:b1:5e:11:2c:de:66:b0:9d:98:
         02:22:69:9a:63:b6:64:2f:d8:c8:ae:13:e0:11:af:8b:42:b8:
         93:7d:50:08:96:bf:08:1e:92:e3:29:fd:48:43:29:45:4b:d4:
         54:ab:11:ea:19:f5:1a:4a:ca:35:42:2a:e5:8f:72:a2:c9:60:
         5d:57:c4:a5:c8:1b:80:ac:ad:70:14:d9:08:55:79:ae:21:1e:
         17:9e:91:96:f7:cd:03:4b:60:b9:29:9b:aa:6e:53:29:c9:1f:
         e6:ce:28:2b:c1:3c:bb:3f:aa:ab:50:d1:33:0e:59:d2:a7:84:
         fb:2d:fd:60:f1:25:69:7c:87:ad:c9:7e:f2:83:a7:ed:ab:c9:
         9d:bf:fb:b3:c7:32:43:c9:c7:3d:7c:db:b1:7e:2a:58:b9:09:
         ab:d1:fd:ca:2e:df:16:c2:97:64:fb:cc:f2:ef:b0:b1:6b:4f:
         b2:28:5f:f8:a0:74:18:1b:82:f6:ac:7b:d7:90:ed:db:56:c7:
         cd:23:ed:d3:bf:59:6d:34:d7:84:e4:21:66:eb:89:d3:4a:41:
         77:30:a3:97:4e:57:6a:51:7a:f0:85:db:7f:00:2c:23:6d:43:
         2c:0e:1e:ef:f3:eb:4b:ca:f8:9e:f9:13:06:63:5b:9f:06:eb:
         52:8c:60:20:1d:1f:81:2d:a5:1a:10:02:07:33:ba:83:5f:2e:
         10:d0:c5:ae:75:2b:fe:01:bc:13:73:94:b1:64:f6:b1:00:d0:
         7b:df:ec:2c:8f:82:e0:b3:ef:3d:da:f3:16:21:be:f7:cf:ee:
         6b:60:ab:b6:f7:80:58:82:18:6d:33:40:ed:03:a7:18:9d:3b:
         eb:4c:db:01:e4:45:46:1a:c7:92:d0:ee:e8:c7:e0:57:ec:e4:
         1c:dc:cb:53:1a:5d:bc:d4:27:08:0c:a4:e1:97:17:8f:02:4e:
         61:7e:52:48:48:e7:75:a4:a7:a2:5e:f2:6c:80:d8:00:d5:eb:
         53:f0:53:e4:91:1e:ea:f8:b3:5e:0b:18:b7:5a:55:2b:0d:71:
         5c:b4:7c:34:20:2b:aa:e3:50:a8:68:02:b1:9f:1d:29:58:79:
         04:69:de:b4:c7:3c:df:36:29:03:7d:28:63:6f:e8:23:18:51:
         82:5b:55:f8:15:da:4c:0e:5f:72:f6:49:bc:54:a4:44:3b:45:
         13:6a:63:7c:2e:0a:49:e1:ee:3c:c2:b3:fa:33:41:62:8d:98:
         44:eb:18:f7:47:54:53:47:0b:97:56:52:29:5b:a9:3c:92:6f:
         15:bb:be:bc:a1:25:14:f9:6f:71:db:eb:de:e0:fc:3d:23:5b:
         eb:d0:58:fd:17:23:85:0b:2d:b9:e7:ba:ef:f7:5e:e9:e2:05:
         2c:7a:ed:1d:9b:54:89:06:2c:71:80:0f:65:c4:40:81:eb:65:
         75:04:5c:8a:8e:40:64:02:02:88:4b:87:75:98:af:11:e6:5d:
         d4:9b:b7:74:47:61:6f:f9:c6:96:a9:4c:cf:b5:b9:6f:77:1e:
         d4:f3:2d:f0:05:27:7b:3b:ab:53:7a:eb:05:dd:5b:2a:f8:43:
         57:95:83:2e:ae:1e:35:f6:81:89:e7:68:e8:8f:46:53:48:97:
         07:07:cd:84:ac:e9:e6:24:91:a6:3a:e5:d5:bb:a6:ad:c9:1a:
         25:ba:16:84:ef:04:25:c5:71:95:6b:d8:44:e6:cd:9d:ff:fc:
         38:e0:f7:0d:e6:b1:ff:10:61:da:ba:68:fb:2d:07:1b:20:58:
         21:78:c8:18:56:ab:50:65:61:fa:f7:db:cd:d8:fb:2d:11:51:
         cb:83:10:97:17:fa:8c:1f:3d:18:72:1b:5b:bc:44:e3:66:45:
         30:cf:7c:36:2d:98:f7:3d:68:c5:b0:7f:7b:0a:bf:d4:4c:94:
         48:24:fe:61:88:4a:db:d3:2c:29:d6:ee:37:e3:1f:fc:a8:02:
         17:31:ba:9c:5c:2e:26:23:c8:45:34:ff:02:48:60:ca:22:91:
         eb:87:5f:52:06:2c:6e:06:9f:4b:dd:2d:39:f6:6c:b3:d9:57:
         e3:58:27:31:22:05:f1:b1:5a:66:3d:c9:4b:3f:51:22:a3:e2:
         f7:34:d7:62:ce:a9:bd:cd:32:f5:59:8c:72:ae:d6:dd:0a:42:
         d0:d7:cc:01:c2:2b:30:cc:f4:20:dc:89:31:6c:b9:05:4a:52:
         f9:6d:d5:fc:c3:9f:dd:8e:07:1b:72:73:a8:ff:e1:48:c1:1e:
         b7:80:1d:cf:7e:2d:e2:01:a1:f6:8b:9b:15:3e:ed:ed:0e:99:
         75:c7:4b:fd:da:90:b4:8d:e6:21:f4:49:21:95:08:45
-----BEGIN CERTIFICATE-----
MIIHNzCCAx+gAwIBAgICEAMwDQYJKoZIhvcNAQENBQAwNTELMAkGA1UEBhMCREUx
EzARBgNVBAoMCm9wbXNnIHRlYW0xETAPBgNVBAMMCGRyb3BzIENBMB4XDTE3MDEy
NzEzNTU1NFoXDTI3MDEyNTEzNTU1NFowODELMAkGA1UEBhMCREUxEzARBgNVBAoM
Cm9wbXNnIHRlYW0xFDASBgNVBAMMC2dsb2JhbCBkcm9wMIICIjANBgkqhkiG9w0B
AQEFAAOCAg8AMIICCgKCAgEArvTdVwYo/ek0fzJNZbtL1TUHQMrW9sTY4lggJCQs
nmAvs7rbPmm9IMGhtAcY//59y5Dbl+G/topk9OkZWdp7whYlt2X5oqUFrq19mOau
hhsjYOiodcjcq5bwZxNkP7XsH2cAZFlELFWKPnHWELz5u/iNfZelB3JV2LjbkWXP
4FEQny+9G11qo38om5mq9Dz54rtP8ahsf8+4JHsMB8rS38eZg+/NUv9571BfXG9H
mB17LSAaoX7jatvGAReGnOFsp6qSbAWLkm1zywtn9TIQVo4ThhgLERUbyBQhYl35
nZucPTvulIM8SIQbRyl9dHALNZn3aV2g1Mm9AJmUS6Tzg3/7XKho+HLoc6oW+eV6
aV1zFXlMW22HN3QQKC0pKUmxqvKEu9c/bB8k42zZmF1zkh/OX5CpjsPAywpdqcv5
jA8brXz2aa9sW/y6jPDB8YbQa9UVxrHoiIUEfxY66+QZ0EzVIGaI/5Gcqp0pi9MG
8i4D765ynqpIJFiLs4yi/rKshGCFKWNjM70Cqqu+gPdpHaqrKZaj84TIVFXzw4ye
GeDcDZ83HAsdJnKLH/RyB1TgB6eA/AMJhLaZVrqqNuFeZ1yfWTSwCYq1NXQFW8ED
Eb+EUSbx2KD8fC0PUTwR9TBoJaRAnUES1kCB92WywOxctIvk0Tla88w5mHxrgF5X
TrECAwEAAaNOMEwwDAYDVR0TAQH/BAIwADAdBgNVHSUEFjAUBggrBgEFBQcDAgYI
KwYBBQUHAwEwHQYDVR0OBBYEFKn4ariHywvfKqAGqZnEqeLWbj/kMA0GCSqGSIb3
DQEBDQUAA4IEAQAb7C75gGh0cXZUM/0ih4XXqynzmcLDHeRZfj2ZWd9M0Ej0m3aS
nhW3uH9MiVaAFzfUdlSdqOx9fqxcMx1R3xCWjE20XeSbxDKlg02p+Lif2H8pnC01
o4wTnIyKuC/IdRugoYPwKxaO57xj9m6NzMDozPCqmYHeevfGMItdqoekDHjilXcP
BXw3+AsO5LnSbSBmdwm7lHMvmxCxXhEs3mawnZgCImmaY7ZkL9jIrhPgEa+LQriT
fVAIlr8IHpLjKf1IQylFS9RUqxHqGfUaSso1Qirlj3KiyWBdV8SlyBuArK1wFNkI
VXmuIR4XnpGW980DS2C5KZuqblMpyR/mzigrwTy7P6qrUNEzDlnSp4T7Lf1g8SVp
fIetyX7yg6ftq8mdv/uzxzJDycc9fNuxfipYuQmr0f3KLt8Wwpdk+8zy77Cxa0+y
KF/4oHQYG4L2rHvXkO3bVsfNI+3Tv1ltNNeE5CFm64nTSkF3MKOXTldqUXrwhdt/
ACwjbUMsDh7v8+tLyvie+RMGY1ufButSjGAgHR+BLaUaEAIHM7qDXy4Q0MWudSv+
AbwTc5SxZPaxANB73+wsj4Lgs+892vMWIb73z+5rYKu294BYghhtM0DtA6cYnTvr
TNsB5EVGGseS0O7ox+BX7OQc3MtTGl281CcIDKThlxePAk5hflJISOd1pKeiXvJs
gNgA1etT8FPkkR7q+LNeCxi3WlUrDXFctHw0ICuq41CoaAKxnx0pWHkEad60xzzf
NikDfShjb+gjGFGCW1X4FdpMDl9y9km8VKREO0UTamN8LgpJ4e48wrP6M0FijZhE
6xj3R1RTRwuXVlIpW6k8km8Vu768oSUU+W9x2+ve4Pw9I1vr0Fj9FyOFCy2557rv
917p4gUseu0dm1SJBixxgA9lxECB62V1BFyKjkBkAgKIS4d1mK8R5l3Um7d0R2Fv
+caWqUzPtblvdx7U8y3wBSd7O6tTeusF3Vsq+ENXlYMurh419oGJ52joj0ZTSJcH
B82ErOnmJJGmOuXVu6atyRoluhaE7wQlxXGVa9hE5s2d//w44PcN5rH/EGHaumj7
LQcbIFgheMgYVqtQZWH699vN2PstEVHLgxCXF/qMHz0YchtbvETjZkUwz3w2LZj3
PWjFsH97Cr/UTJRIJP5hiErb0ywp1u434x/8qAIXMbqcXC4mI8hFNP8CSGDKIpHr
h19SBixuBp9L3S059myz2VfjWCcxIgXxsVpmPclLP1Eio+L3NNdizqm9zTL1WYxy
rtbdCkLQ18wBwiswzPQg3IkxbLkFSlL5bdX8w5/djgcbcnOo/+FIwR63gB3Pfi3i
AaH2i5sVPu3tDpl1x0v92pC0jeYh9EkhlQhF
-----END CERTIFICATE-----
